; Function Attrs: nounwind uwtable
define dso_local i64 @inet_abbrev(ptr noundef readonly captures(none) %0) local_unnamed_addr #0 {
  %2 = alloca [50 x i8], align 16
  %3 = getelementptr inbounds nuw i8, ptr %0, i64 32
  %4 = load i64, ptr %3, align 8
  %5 = inttoptr i64 %4 to ptr
  %6 = tail call ptr @pg_detoast_datum_packed(ptr noundef %5) #14
  call void @llvm.lifetime.start.p0(i64 50, ptr nonnull %2) #14
  %7 = load i8, ptr %6, align 1
  %8 = and i8 %7, 1
  %.not = icmp eq i8 %8, 0
  %.v = select i1 %.not, i64 4, i64 1
  %9 = getelementptr inbounds nuw i8, ptr %6, i64 %.v
  %10 = load i8, ptr %9, align 1
  %11 = zext i8 %10 to i32
  %12 = getelementptr inbounds nuw i8, ptr %9, i64 2
  %13 = getelementptr inbounds nuw i8, ptr %9, i64 1
  %14 = load i8, ptr %13, align 1
  %15 = zext i8 %14 to i32
  %16 = call ptr @pg_inet_net_ntop(i32 noundef %11, ptr noundef nonnull %12, i32 noundef %15, ptr noundef nonnull %2, i64 noundef 50) #14
  %17 = icmp eq ptr %16, null
  br i1 %17, label %18, label %22

18:                                               ; preds = %1
  %19 = call zeroext i1 @errstart_cold(i32 noundef 21, ptr noundef null) #16
  call void @llvm.assume(i1 %19)
  %20 = call i32 @errcode(i32 noundef 50462850) #14
  %21 = call i32 (ptr, ...) @errmsg(ptr noundef nonnull @.str.3) #14
  call void @errfinish(ptr noundef nonnull @.str.1, i32 noundef 1228, ptr noundef nonnull @__func__.inet_abbrev) #14
  unreachable

22:                                               ; preds = %1
  %23 = call ptr @cstring_to_text(ptr noundef nonnull %2) #14
  %24 = ptrtoint ptr %23 to i64
  call void @llvm.lifetime.end.p0(i64 50, ptr nonnull %2) #14
  ret i64 %24
}